
Les 2 B1.elf:     file format elf32-avr

Sections:
Idx Name          Size      VMA       LMA       File off  Algn
  0 .data         00000000  00800100  00800100  00000168  2**0
                  CONTENTS, ALLOC, LOAD, DATA
  1 .text         00000114  00000000  00000000  00000054  2**1
                  CONTENTS, ALLOC, LOAD, READONLY, CODE
  2 .comment      00000030  00000000  00000000  00000168  2**0
                  CONTENTS, READONLY
  3 .note.gnu.avr.deviceinfo 0000003c  00000000  00000000  00000198  2**2
                  CONTENTS, READONLY
  4 .debug_aranges 00000038  00000000  00000000  000001d4  2**0
                  CONTENTS, READONLY, DEBUGGING
  5 .debug_info   00000912  00000000  00000000  0000020c  2**0
                  CONTENTS, READONLY, DEBUGGING
  6 .debug_abbrev 0000083e  00000000  00000000  00000b1e  2**0
                  CONTENTS, READONLY, DEBUGGING
  7 .debug_line   000004ab  00000000  00000000  0000135c  2**0
                  CONTENTS, READONLY, DEBUGGING
  8 .debug_frame  0000006c  00000000  00000000  00001808  2**2
                  CONTENTS, READONLY, DEBUGGING
  9 .debug_str    0000761a  00000000  00000000  00001874  2**0
                  CONTENTS, READONLY, DEBUGGING
 10 .debug_loc    000000c8  00000000  00000000  00008e8e  2**0
                  CONTENTS, READONLY, DEBUGGING
 11 .debug_ranges 00000028  00000000  00000000  00008f56  2**0
                  CONTENTS, READONLY, DEBUGGING
 12 .debug_macro  00000228  00000000  00000000  00008f7e  2**0
                  CONTENTS, READONLY, DEBUGGING

Disassembly of section .text:

00000000 <__vectors>:
   0:	45 c0       	rjmp	.+138    	; 0x8c <__ctors_end>
   2:	00 00       	nop
   4:	5d c0       	rjmp	.+186    	; 0xc0 <__vector_1>
   6:	00 00       	nop
   8:	66 c0       	rjmp	.+204    	; 0xd6 <__vector_2>
   a:	00 00       	nop
   c:	47 c0       	rjmp	.+142    	; 0x9c <__bad_interrupt>
   e:	00 00       	nop
  10:	45 c0       	rjmp	.+138    	; 0x9c <__bad_interrupt>
  12:	00 00       	nop
  14:	43 c0       	rjmp	.+134    	; 0x9c <__bad_interrupt>
  16:	00 00       	nop
  18:	41 c0       	rjmp	.+130    	; 0x9c <__bad_interrupt>
  1a:	00 00       	nop
  1c:	3f c0       	rjmp	.+126    	; 0x9c <__bad_interrupt>
  1e:	00 00       	nop
  20:	3d c0       	rjmp	.+122    	; 0x9c <__bad_interrupt>
  22:	00 00       	nop
  24:	3b c0       	rjmp	.+118    	; 0x9c <__bad_interrupt>
  26:	00 00       	nop
  28:	39 c0       	rjmp	.+114    	; 0x9c <__bad_interrupt>
  2a:	00 00       	nop
  2c:	37 c0       	rjmp	.+110    	; 0x9c <__bad_interrupt>
  2e:	00 00       	nop
  30:	35 c0       	rjmp	.+106    	; 0x9c <__bad_interrupt>
  32:	00 00       	nop
  34:	33 c0       	rjmp	.+102    	; 0x9c <__bad_interrupt>
  36:	00 00       	nop
  38:	31 c0       	rjmp	.+98     	; 0x9c <__bad_interrupt>
  3a:	00 00       	nop
  3c:	2f c0       	rjmp	.+94     	; 0x9c <__bad_interrupt>
  3e:	00 00       	nop
  40:	2d c0       	rjmp	.+90     	; 0x9c <__bad_interrupt>
  42:	00 00       	nop
  44:	2b c0       	rjmp	.+86     	; 0x9c <__bad_interrupt>
  46:	00 00       	nop
  48:	29 c0       	rjmp	.+82     	; 0x9c <__bad_interrupt>
  4a:	00 00       	nop
  4c:	27 c0       	rjmp	.+78     	; 0x9c <__bad_interrupt>
  4e:	00 00       	nop
  50:	25 c0       	rjmp	.+74     	; 0x9c <__bad_interrupt>
  52:	00 00       	nop
  54:	23 c0       	rjmp	.+70     	; 0x9c <__bad_interrupt>
  56:	00 00       	nop
  58:	21 c0       	rjmp	.+66     	; 0x9c <__bad_interrupt>
  5a:	00 00       	nop
  5c:	1f c0       	rjmp	.+62     	; 0x9c <__bad_interrupt>
  5e:	00 00       	nop
  60:	1d c0       	rjmp	.+58     	; 0x9c <__bad_interrupt>
  62:	00 00       	nop
  64:	1b c0       	rjmp	.+54     	; 0x9c <__bad_interrupt>
  66:	00 00       	nop
  68:	19 c0       	rjmp	.+50     	; 0x9c <__bad_interrupt>
  6a:	00 00       	nop
  6c:	17 c0       	rjmp	.+46     	; 0x9c <__bad_interrupt>
  6e:	00 00       	nop
  70:	15 c0       	rjmp	.+42     	; 0x9c <__bad_interrupt>
  72:	00 00       	nop
  74:	13 c0       	rjmp	.+38     	; 0x9c <__bad_interrupt>
  76:	00 00       	nop
  78:	11 c0       	rjmp	.+34     	; 0x9c <__bad_interrupt>
  7a:	00 00       	nop
  7c:	0f c0       	rjmp	.+30     	; 0x9c <__bad_interrupt>
  7e:	00 00       	nop
  80:	0d c0       	rjmp	.+26     	; 0x9c <__bad_interrupt>
  82:	00 00       	nop
  84:	0b c0       	rjmp	.+22     	; 0x9c <__bad_interrupt>
  86:	00 00       	nop
  88:	09 c0       	rjmp	.+18     	; 0x9c <__bad_interrupt>
	...

0000008c <__ctors_end>:
  8c:	11 24       	eor	r1, r1
  8e:	1f be       	out	0x3f, r1	; 63
  90:	cf ef       	ldi	r28, 0xFF	; 255
  92:	d0 e1       	ldi	r29, 0x10	; 16
  94:	de bf       	out	0x3e, r29	; 62
  96:	cd bf       	out	0x3d, r28	; 61
  98:	29 d0       	rcall	.+82     	; 0xec <main>
  9a:	3a c0       	rjmp	.+116    	; 0x110 <_exit>

0000009c <__bad_interrupt>:
  9c:	b1 cf       	rjmp	.-158    	; 0x0 <__vectors>

0000009e <wait>:
				clock value is set. This is used by _delay_ms inside
				util/delay.h
Version :    	DMK, Initial code
*******************************************************************/
{
	for (int i=0; i<ms; i++)
  9e:	18 16       	cp	r1, r24
  a0:	19 06       	cpc	r1, r25
  a2:	6c f4       	brge	.+26     	; 0xbe <wait+0x20>
  a4:	20 e0       	ldi	r18, 0x00	; 0
  a6:	30 e0       	ldi	r19, 0x00	; 0
	#else
		//round up by default
		__ticks_dc = (uint32_t)(ceil(fabs(__tmp)));
	#endif

	__builtin_avr_delay_cycles(__ticks_dc);
  a8:	ef ec       	ldi	r30, 0xCF	; 207
  aa:	f7 e0       	ldi	r31, 0x07	; 7
  ac:	31 97       	sbiw	r30, 0x01	; 1
  ae:	f1 f7       	brne	.-4      	; 0xac <wait+0xe>
  b0:	00 c0       	rjmp	.+0      	; 0xb2 <wait+0x14>
  b2:	00 00       	nop
  b4:	2f 5f       	subi	r18, 0xFF	; 255
  b6:	3f 4f       	sbci	r19, 0xFF	; 255
  b8:	82 17       	cp	r24, r18
  ba:	93 07       	cpc	r25, r19
  bc:	a9 f7       	brne	.-22     	; 0xa8 <wait+0xa>
  be:	08 95       	ret

000000c0 <__vector_1>:
inputs:			
outputs:	
notes:			Set PORTD.5
Version :    	DMK, Initial code
*******************************************************************/
{
  c0:	1f 92       	push	r1
  c2:	0f 92       	push	r0
  c4:	0f b6       	in	r0, 0x3f	; 63
  c6:	0f 92       	push	r0
  c8:	11 24       	eor	r1, r1
    PORTD |= (1<<5);		
  ca:	95 9a       	sbi	0x12, 5	; 18
}
  cc:	0f 90       	pop	r0
  ce:	0f be       	out	0x3f, r0	; 63
  d0:	0f 90       	pop	r0
  d2:	1f 90       	pop	r1
  d4:	18 95       	reti

000000d6 <__vector_2>:
inputs:			
outputs:	
notes:			Clear PORTD.5
Version :    	DMK, Initial code
*******************************************************************/
{
  d6:	1f 92       	push	r1
  d8:	0f 92       	push	r0
  da:	0f b6       	in	r0, 0x3f	; 63
  dc:	0f 92       	push	r0
  de:	11 24       	eor	r1, r1
    PORTD &= ~(1<<5);		
  e0:	95 98       	cbi	0x12, 5	; 18
}
  e2:	0f 90       	pop	r0
  e4:	0f be       	out	0x3f, r0	; 63
  e6:	0f 90       	pop	r0
  e8:	1f 90       	pop	r1
  ea:	18 95       	reti

000000ec <main>:
notes:			Slow background task after init ISR
Version :    	DMK, Initial code
*******************************************************************/
{
	// Init I/O
	DDRD = 0xF0;			// PORTD(7:4) output, PORTD(3:0) input	
  ec:	80 ef       	ldi	r24, 0xF0	; 240
  ee:	81 bb       	out	0x11, r24	; 17

	// Init Interrupt hardware
	EICRA |= 0x0B;			// INT1 falling edge, INT0 rising edge
  f0:	ea e6       	ldi	r30, 0x6A	; 106
  f2:	f0 e0       	ldi	r31, 0x00	; 0
  f4:	80 81       	ld	r24, Z
  f6:	8b 60       	ori	r24, 0x0B	; 11
  f8:	80 83       	st	Z, r24
	EIMSK |= 0x03;			// Enable INT1 & INT0
  fa:	89 b7       	in	r24, 0x39	; 57
  fc:	83 60       	ori	r24, 0x03	; 3
  fe:	89 bf       	out	0x39, r24	; 57
	
	// Enable global interrupt system
	//SREG = 0x80;			// Of direct via SREG of via wrapper
	sei();				
 100:	78 94       	sei

	while (1)
	{
		PORTD ^= (1<<7);	// Toggle PORTD.7
 102:	82 b3       	in	r24, 0x12	; 18
 104:	80 58       	subi	r24, 0x80	; 128
 106:	82 bb       	out	0x12, r24	; 18
		wait( 500 );								
 108:	84 ef       	ldi	r24, 0xF4	; 244
 10a:	91 e0       	ldi	r25, 0x01	; 1
 10c:	c8 df       	rcall	.-112    	; 0x9e <wait>
 10e:	f9 cf       	rjmp	.-14     	; 0x102 <main+0x16>

00000110 <_exit>:
 110:	f8 94       	cli

00000112 <__stop_program>:
 112:	ff cf       	rjmp	.-2      	; 0x112 <__stop_program>
